target datalayout = "e-m:e-p270:32:32-p271:32:32-p272:64:64-i64:64-i128:128-f80:128-n8:16:32:64-S128"
target triple = "x86_64-pc-linux-gnu"

%struct._address = type { i32, i32, ptr, ptr }
%struct._conversation_key_t = type { %struct._address, %struct._address, i32, i32, i32 }

; Function Attrs: inlinehint nounwind null_pointer_is_valid sspstrong uwtable
define internal zeroext i1 @addresses_equal(ptr noundef %0, ptr noundef %1) #12 {
  %3 = alloca i1, align 1
  %4 = alloca ptr, align 8
  %5 = alloca ptr, align 8
  store ptr %0, ptr %4, align 8
  store ptr %1, ptr %5, align 8
  %6 = load ptr, ptr %4, align 8
  %7 = getelementptr inbounds nuw %struct._address, ptr %6, i32 0, i32 0
  %8 = load i32, ptr %7, align 8
  %9 = load ptr, ptr %5, align 8
  %10 = getelementptr inbounds nuw %struct._address, ptr %9, i32 0, i32 0
  %11 = load i32, ptr %10, align 8
  %12 = icmp eq i32 %8, %11
  br i1 %12, label %13, label %40

13:                                               ; preds = %2
  %14 = load ptr, ptr %4, align 8
  %15 = getelementptr inbounds nuw %struct._address, ptr %14, i32 0, i32 1
  %16 = load i32, ptr %15, align 4
  %17 = load ptr, ptr %5, align 8
  %18 = getelementptr inbounds nuw %struct._address, ptr %17, i32 0, i32 1
  %19 = load i32, ptr %18, align 4
  %20 = icmp eq i32 %16, %19
  br i1 %20, label %21, label %40

21:                                               ; preds = %13
  %22 = load ptr, ptr %4, align 8
  %23 = getelementptr inbounds nuw %struct._address, ptr %22, i32 0, i32 1
  %24 = load i32, ptr %23, align 4
  %25 = icmp eq i32 %24, 0
  br i1 %25, label %39, label %26

26:                                               ; preds = %21
  %27 = load ptr, ptr %4, align 8
  %28 = getelementptr inbounds nuw %struct._address, ptr %27, i32 0, i32 2
  %29 = load ptr, ptr %28, align 8
  %30 = load ptr, ptr %5, align 8
  %31 = getelementptr inbounds nuw %struct._address, ptr %30, i32 0, i32 2
  %32 = load ptr, ptr %31, align 8
  %33 = load ptr, ptr %4, align 8
  %34 = getelementptr inbounds nuw %struct._address, ptr %33, i32 0, i32 1
  %35 = load i32, ptr %34, align 4
  %36 = sext i32 %35 to i64
  %37 = call i32 @memcmp(ptr noundef %29, ptr noundef %32, i64 noundef %36) #17
  %38 = icmp eq i32 %37, 0
  br i1 %38, label %39, label %40

39:                                               ; preds = %26, %21
  store i1 true, ptr %3, align 1
  br label %41

40:                                               ; preds = %26, %13, %2
  store i1 false, ptr %3, align 1
  br label %41

41:                                               ; preds = %40, %39
  %42 = load i1, ptr %3, align 1
  ret i1 %42
}

; Function Attrs: null_pointer_is_valid sspstrong uwtable
define internal i32 @conversation_equal(ptr noundef %0, ptr noundef %1) #1 {
  %3 = alloca i32, align 4
  %4 = alloca ptr, align 8
  %5 = alloca ptr, align 8
  %6 = alloca ptr, align 8
  %7 = alloca ptr, align 8
  %8 = alloca i32, align 4
  store ptr %0, ptr %4, align 8
  store ptr %1, ptr %5, align 8
  call void @llvm.lifetime.start.p0(i64 8, ptr %6) #16
  %9 = load ptr, ptr %4, align 8
  store ptr %9, ptr %6, align 8
  call void @llvm.lifetime.start.p0(i64 8, ptr %7) #16
  %10 = load ptr, ptr %5, align 8
  store ptr %10, ptr %7, align 8
  %11 = load ptr, ptr %6, align 8
  %12 = getelementptr inbounds nuw %struct._conversation_key_t, ptr %11, i32 0, i32 4
  %13 = load i32, ptr %12, align 8
  %14 = load ptr, ptr %7, align 8
  %15 = getelementptr inbounds nuw %struct._conversation_key_t, ptr %14, i32 0, i32 4
  %16 = load i32, ptr %15, align 8
  %17 = icmp eq i32 %13, %16
  br i1 %17, label %18, label %77

18:                                               ; preds = %2
  %19 = load ptr, ptr %6, align 8
  %20 = getelementptr inbounds nuw %struct._conversation_key_t, ptr %19, i32 0, i32 2
  %21 = load i32, ptr %20, align 8
  %22 = load ptr, ptr %7, align 8
  %23 = getelementptr inbounds nuw %struct._conversation_key_t, ptr %22, i32 0, i32 2
  %24 = load i32, ptr %23, align 8
  %25 = icmp eq i32 %21, %24
  br i1 %25, label %26, label %47

26:                                               ; preds = %18
  %27 = load ptr, ptr %6, align 8
  %28 = getelementptr inbounds nuw %struct._conversation_key_t, ptr %27, i32 0, i32 3
  %29 = load i32, ptr %28, align 4
  %30 = load ptr, ptr %7, align 8
  %31 = getelementptr inbounds nuw %struct._conversation_key_t, ptr %30, i32 0, i32 3
  %32 = load i32, ptr %31, align 4
  %33 = icmp eq i32 %29, %32
  br i1 %33, label %34, label %47

34:                                               ; preds = %26
  %35 = load ptr, ptr %6, align 8
  %36 = getelementptr inbounds nuw %struct._conversation_key_t, ptr %35, i32 0, i32 0
  %37 = load ptr, ptr %7, align 8
  %38 = getelementptr inbounds nuw %struct._conversation_key_t, ptr %37, i32 0, i32 0
  %39 = call zeroext i1 @addresses_equal(ptr noundef %36, ptr noundef %38)
  br i1 %39, label %40, label %47

40:                                               ; preds = %34
  %41 = load ptr, ptr %6, align 8
  %42 = getelementptr inbounds nuw %struct._conversation_key_t, ptr %41, i32 0, i32 1
  %43 = load ptr, ptr %7, align 8
  %44 = getelementptr inbounds nuw %struct._conversation_key_t, ptr %43, i32 0, i32 1
  %45 = call zeroext i1 @addresses_equal(ptr noundef %42, ptr noundef %44)
  br i1 %45, label %46, label %47

46:                                               ; preds = %40
  store i32 1, ptr %3, align 4
  store i32 1, ptr %8, align 4
  br label %78

47:                                               ; preds = %40, %34, %26, %18
  %48 = load ptr, ptr %6, align 8
  %49 = getelementptr inbounds nuw %struct._conversation_key_t, ptr %48, i32 0, i32 3
  %50 = load i32, ptr %49, align 4
  %51 = load ptr, ptr %7, align 8
  %52 = getelementptr inbounds nuw %struct._conversation_key_t, ptr %51, i32 0, i32 2
  %53 = load i32, ptr %52, align 8
  %54 = icmp eq i32 %50, %53
  br i1 %54, label %55, label %76

55:                                               ; preds = %47
  %56 = load ptr, ptr %6, align 8
  %57 = getelementptr inbounds nuw %struct._conversation_key_t, ptr %56, i32 0, i32 2
  %58 = load i32, ptr %57, align 8
  %59 = load ptr, ptr %7, align 8
  %60 = getelementptr inbounds nuw %struct._conversation_key_t, ptr %59, i32 0, i32 3
  %61 = load i32, ptr %60, align 4
  %62 = icmp eq i32 %58, %61
  br i1 %62, label %63, label %76

63:                                               ; preds = %55
  %64 = load ptr, ptr %6, align 8
  %65 = getelementptr inbounds nuw %struct._conversation_key_t, ptr %64, i32 0, i32 1
  %66 = load ptr, ptr %7, align 8
  %67 = getelementptr inbounds nuw %struct._conversation_key_t, ptr %66, i32 0, i32 0
  %68 = call zeroext i1 @addresses_equal(ptr noundef %65, ptr noundef %67)
  br i1 %68, label %69, label %76

69:                                               ; preds = %63
  %70 = load ptr, ptr %6, align 8
  %71 = getelementptr inbounds nuw %struct._conversation_key_t, ptr %70, i32 0, i32 0
  %72 = load ptr, ptr %7, align 8
  %73 = getelementptr inbounds nuw %struct._conversation_key_t, ptr %72, i32 0, i32 1
  %74 = call zeroext i1 @addresses_equal(ptr noundef %71, ptr noundef %73)
  br i1 %74, label %75, label %76

75:                                               ; preds = %69
  store i32 1, ptr %3, align 4
  store i32 1, ptr %8, align 4
  br label %78

76:                                               ; preds = %69, %63, %55, %47
  br label %77

77:                                               ; preds = %76, %2
  store i32 0, ptr %3, align 4
  store i32 1, ptr %8, align 4
  br label %78

78:                                               ; preds = %77, %75, %46
  call void @llvm.lifetime.end.p0(i64 8, ptr %7) #16
  call void @llvm.lifetime.end.p0(i64 8, ptr %6) #16
  %79 = load i32, ptr %3, align 4
  ret i32 %79
}