; Function Attrs: mustprogress nofree nounwind null_pointer_is_valid sspstrong willreturn memory(read, inaccessiblemem: none) uwtable
define internal range(i32 0, 2) i32 @conversation_equal(ptr noundef readonly captures(none) %0, ptr noundef readonly captures(none) %1) #7 {
  %3 = getelementptr inbounds nuw i8, ptr %0, i64 56
  %4 = load i32, ptr %3, align 8
  %5 = getelementptr inbounds nuw i8, ptr %1, i64 56
  %6 = load i32, ptr %5, align 8
  %7 = icmp eq i32 %4, %6
  br i1 %7, label %8, label %addresses_equal.exit25

8:                                                ; preds = %2
  %9 = getelementptr inbounds nuw i8, ptr %0, i64 48
  %10 = load i32, ptr %9, align 8
  %11 = getelementptr inbounds nuw i8, ptr %1, i64 48
  %12 = load i32, ptr %11, align 8
  %13 = icmp eq i32 %10, %12
  %14 = getelementptr inbounds nuw i8, ptr %0, i64 52
  %15 = load i32, ptr %14, align 4
  br i1 %13, label %16, label %addresses_equal.exit

16:                                               ; preds = %8
  %17 = getelementptr inbounds nuw i8, ptr %1, i64 52
  %18 = load i32, ptr %17, align 4
  %19 = icmp eq i32 %15, %18
  br i1 %19, label %20, label %addresses_equal.exit

20:                                               ; preds = %16
  %21 = load i32, ptr %0, align 8
  %22 = load i32, ptr %1, align 8
  %23 = icmp eq i32 %21, %22
  br i1 %23, label %24, label %addresses_equal.exit

24:                                               ; preds = %20
  %25 = getelementptr inbounds nuw i8, ptr %0, i64 4
  %26 = load i32, ptr %25, align 4
  %27 = getelementptr inbounds nuw i8, ptr %1, i64 4
  %28 = load i32, ptr %27, align 4
  %29 = icmp eq i32 %26, %28
  br i1 %29, label %30, label %addresses_equal.exit

30:                                               ; preds = %24
  %31 = icmp eq i32 %26, 0
  br i1 %31, label %39, label %32

32:                                               ; preds = %30
  %33 = getelementptr inbounds nuw i8, ptr %0, i64 8
  %34 = load ptr, ptr %33, align 8
  %35 = getelementptr inbounds nuw i8, ptr %1, i64 8
  %36 = load ptr, ptr %35, align 8
  %37 = sext i32 %26 to i64
  %bcmp.i = tail call i32 @bcmp(ptr %34, ptr %36, i64 %37)
  %38 = icmp eq i32 %bcmp.i, 0
  br i1 %38, label %39, label %addresses_equal.exit

39:                                               ; preds = %32, %30
  %40 = getelementptr inbounds nuw i8, ptr %0, i64 24
  %41 = getelementptr inbounds nuw i8, ptr %1, i64 24
  %42 = load i32, ptr %40, align 8
  %43 = load i32, ptr %41, align 8
  %44 = icmp eq i32 %42, %43
  br i1 %44, label %45, label %addresses_equal.exit

45:                                               ; preds = %39
  %46 = getelementptr inbounds nuw i8, ptr %0, i64 28
  %47 = load i32, ptr %46, align 4
  %48 = getelementptr inbounds nuw i8, ptr %1, i64 28
  %49 = load i32, ptr %48, align 4
  %50 = icmp eq i32 %47, %49
  br i1 %50, label %51, label %addresses_equal.exit

51:                                               ; preds = %45
  %52 = icmp eq i32 %47, 0
  br i1 %52, label %addresses_equal.exit25, label %53

53:                                               ; preds = %51
  %54 = getelementptr inbounds nuw i8, ptr %0, i64 32
  %55 = load ptr, ptr %54, align 8
  %56 = getelementptr inbounds nuw i8, ptr %1, i64 32
  %57 = load ptr, ptr %56, align 8
  %58 = sext i32 %47 to i64
  %bcmp.i21 = tail call i32 @bcmp(ptr %55, ptr %57, i64 %58)
  %59 = icmp eq i32 %bcmp.i21, 0
  br i1 %59, label %addresses_equal.exit25, label %addresses_equal.exit

addresses_equal.exit:                             ; preds = %8, %53, %45, %39, %32, %24, %20, %16
  %60 = icmp eq i32 %15, %12
  br i1 %60, label %61, label %addresses_equal.exit25

61:                                               ; preds = %addresses_equal.exit
  %62 = getelementptr inbounds nuw i8, ptr %1, i64 52
  %63 = load i32, ptr %62, align 4
  %64 = icmp eq i32 %10, %63
  br i1 %64, label %65, label %addresses_equal.exit25

65:                                               ; preds = %61
  %66 = getelementptr inbounds nuw i8, ptr %0, i64 24
  %67 = load i32, ptr %66, align 8
  %68 = load i32, ptr %1, align 8
  %69 = icmp eq i32 %67, %68
  br i1 %69, label %70, label %addresses_equal.exit25

70:                                               ; preds = %65
  %71 = getelementptr inbounds nuw i8, ptr %0, i64 28
  %72 = load i32, ptr %71, align 4
  %73 = getelementptr inbounds nuw i8, ptr %1, i64 4
  %74 = load i32, ptr %73, align 4
  %75 = icmp eq i32 %72, %74
  br i1 %75, label %76, label %addresses_equal.exit25

76:                                               ; preds = %70
  %77 = icmp eq i32 %72, 0
  br i1 %77, label %85, label %78

78:                                               ; preds = %76
  %79 = getelementptr inbounds nuw i8, ptr %0, i64 32
  %80 = load ptr, ptr %79, align 8
  %81 = getelementptr inbounds nuw i8, ptr %1, i64 8
  %82 = load ptr, ptr %81, align 8
  %83 = sext i32 %72 to i64
  %bcmp.i24 = tail call i32 @bcmp(ptr %80, ptr %82, i64 %83)
  %84 = icmp eq i32 %bcmp.i24, 0
  br i1 %84, label %85, label %addresses_equal.exit25

85:                                               ; preds = %78, %76
  %86 = getelementptr inbounds nuw i8, ptr %1, i64 24
  %87 = load i32, ptr %0, align 8
  %88 = load i32, ptr %86, align 8
  %89 = icmp eq i32 %87, %88
  br i1 %89, label %90, label %addresses_equal.exit25

90:                                               ; preds = %85
  %91 = getelementptr inbounds nuw i8, ptr %0, i64 4
  %92 = load i32, ptr %91, align 4
  %93 = getelementptr inbounds nuw i8, ptr %1, i64 28
  %94 = load i32, ptr %93, align 4
  %95 = icmp eq i32 %92, %94
  br i1 %95, label %96, label %addresses_equal.exit25

96:                                               ; preds = %90
  %97 = icmp eq i32 %92, 0
  br i1 %97, label %addresses_equal.exit28.thread, label %98

98:                                               ; preds = %96
  %99 = getelementptr inbounds nuw i8, ptr %0, i64 8
  %100 = load ptr, ptr %99, align 8
  %101 = getelementptr inbounds nuw i8, ptr %1, i64 32
  %102 = load ptr, ptr %101, align 8
  %103 = sext i32 %92 to i64
  %bcmp.i27 = tail call i32 @bcmp(ptr %100, ptr %102, i64 %103)
  %104 = icmp eq i32 %bcmp.i27, 0
  br i1 %104, label %addresses_equal.exit28.thread, label %addresses_equal.exit25

addresses_equal.exit28.thread:                    ; preds = %98, %96
  br label %addresses_equal.exit25

addresses_equal.exit25:                           ; preds = %51, %53, %2, %61, %addresses_equal.exit, %65, %70, %78, %85, %90, %98, %addresses_equal.exit28.thread
  %.0 = phi i32 [ 1, %addresses_equal.exit28.thread ], [ 0, %98 ], [ 0, %90 ], [ 0, %85 ], [ 0, %78 ], [ 0, %70 ], [ 0, %65 ], [ 0, %addresses_equal.exit ], [ 0, %61 ], [ 0, %2 ], [ 1, %53 ], [ 1, %51 ]
  ret i32 %.0
}